target datalayout = "e-m:e-p270:32:32-p271:32:32-p272:64:64-i64:64-i128:128-f80:128-n8:16:32:64-S128"
target triple = "x86_64-pc-linux-gnu"

%"class.g2o::BaseVertex" = type { %"class.g2o::OptimizableGraph::Vertex", %"class.Eigen::Map", %"class.Eigen::Matrix", %"class.Eigen::Matrix", %"class.std::stack" }
%"class.g2o::OptimizableGraph::Vertex" = type { %"class.g2o::HyperGraph::Vertex", %"class.g2o::HyperGraph::DataContainer", ptr, ptr, i32, i8, i8, i32, i32, [8 x i8], ptr }
%"class.g2o::HyperGraph::Vertex" = type { %"struct.g2o::HyperGraph::HyperGraphElement", i32, %"class.std::set" }
%"struct.g2o::HyperGraph::HyperGraphElement" = type { ptr }
%"class.std::set" = type { %"class.std::_Rb_tree" }
%"class.std::_Rb_tree" = type { %"struct.std::_Rb_tree<g2o::HyperGraph::Edge *, g2o::HyperGraph::Edge *, std::_Identity<g2o::HyperGraph::Edge *>, std::less<g2o::HyperGraph::Edge *>>::_Rb_tree_impl" }
%"struct.std::_Rb_tree<g2o::HyperGraph::Edge *, g2o::HyperGraph::Edge *, std::_Identity<g2o::HyperGraph::Edge *>, std::less<g2o::HyperGraph::Edge *>>::_Rb_tree_impl" = type { [8 x i8], %"struct.std::_Rb_tree_header" }
%"struct.std::_Rb_tree_header" = type { %"struct.std::_Rb_tree_node_base", i64 }
%"struct.std::_Rb_tree_node_base" = type { i32, ptr, ptr, ptr }
%"class.g2o::HyperGraph::DataContainer" = type { ptr, ptr }
%"class.Eigen::Map" = type { %"class.Eigen::MapBase.base.4", [6 x i8] }
%"class.Eigen::MapBase.base.4" = type { %"class.Eigen::MapBase.base" }
%"class.Eigen::MapBase.base" = type <{ ptr, [2 x i8] }>
%"class.Eigen::Matrix" = type { %"class.Eigen::PlainObjectBase" }
%"class.Eigen::PlainObjectBase" = type { %"class.Eigen::DenseStorage" }
%"class.Eigen::DenseStorage" = type { %"struct.Eigen::internal::plain_array" }
%"struct.Eigen::internal::plain_array" = type { [3 x double] }
%"class.std::stack" = type { %"class.std::vector" }
%"class.std::vector" = type { %"struct.std::_Vector_base" }
%"struct.std::_Vector_base" = type { %"struct.std::_Vector_base<Eigen::Matrix<double, 3, 1>, std::allocator<Eigen::Matrix<double, 3, 1>>>::_Vector_impl" }
%"struct.std::_Vector_base<Eigen::Matrix<double, 3, 1>, std::allocator<Eigen::Matrix<double, 3, 1>>>::_Vector_impl" = type { %"struct.std::_Vector_base<Eigen::Matrix<double, 3, 1>, std::allocator<Eigen::Matrix<double, 3, 1>>>::_Vector_impl_data" }
%"struct.std::_Vector_base<Eigen::Matrix<double, 3, 1>, std::allocator<Eigen::Matrix<double, 3, 1>>>::_Vector_impl_data" = type { ptr, ptr, ptr }
%"struct.Eigen::internal::evaluator" = type { %"struct.Eigen::internal::evaluator.39" }
%"struct.Eigen::internal::evaluator.39" = type { %"class.Eigen::internal::plainobjectbase_evaluator_data" }
%"class.Eigen::internal::plainobjectbase_evaluator_data" = type { ptr }
%"class.std::ios_base" = type { ptr, i64, i64, i32, i32, i32, ptr, %"struct.std::ios_base::_Words", [8 x %"struct.std::ios_base::_Words"], i32, ptr, %"class.std::locale" }
%"struct.std::ios_base::_Words" = type { ptr, i64 }
%"class.std::locale" = type { ptr }

@.str = private unnamed_addr constant [2 x i8] c" \00", align 1

; Function Attrs: inlinehint mustprogress nounwind uwtable
define linkonce_odr void @_ZN5Eigen8internal22ignore_unused_variableIlEEvRKT_(ptr noundef nonnull align 8 dereferenceable(8) %0) #8 comdat {
  %2 = alloca ptr, align 8
  store ptr %0, ptr %2, align 8, !tbaa !108
  ret void
}

; Function Attrs: mustprogress nounwind uwtable
define linkonce_odr noundef ptr @_ZNK5Eigen12DenseStorageIdLi3ELi3ELi1ELi0EE4dataEv(ptr noundef nonnull align 8 dereferenceable(24) %0) #1 comdat align 2 {
  %2 = alloca ptr, align 8
  store ptr %0, ptr %2, align 8, !tbaa !150
  %3 = load ptr, ptr %2, align 8
  %4 = getelementptr inbounds nuw %"class.Eigen::DenseStorage", ptr %3, i32 0, i32 0
  %5 = getelementptr inbounds nuw %"struct.Eigen::internal::plain_array", ptr %4, i32 0, i32 0
  %6 = getelementptr inbounds [3 x double], ptr %5, i64 0, i64 0
  ret ptr %6
}

; Function Attrs: inlinehint mustprogress nounwind uwtable
define linkonce_odr void @_ZN5Eigen8internal30plainobjectbase_evaluator_dataIdLi0EEC2EPKdl(ptr noundef nonnull align 8 dereferenceable(8) %0, ptr noundef %1, i64 noundef %2) unnamed_addr #8 comdat align 2 {
  %4 = alloca ptr, align 8
  %5 = alloca ptr, align 8
  %6 = alloca i64, align 8
  store ptr %0, ptr %4, align 8, !tbaa !146
  store ptr %1, ptr %5, align 8, !tbaa !75
  store i64 %2, ptr %6, align 8, !tbaa !99
  %7 = load ptr, ptr %4, align 8
  %8 = getelementptr inbounds nuw %"class.Eigen::internal::plainobjectbase_evaluator_data", ptr %7, i32 0, i32 0
  %9 = load ptr, ptr %5, align 8, !tbaa !75
  store ptr %9, ptr %8, align 8, !tbaa !148
  call void @_ZN5Eigen8internal22ignore_unused_variableIlEEvRKT_(ptr noundef nonnull align 8 dereferenceable(8) %6)
  ret void
}

; Function Attrs: inlinehint mustprogress uwtable
define linkonce_odr noundef ptr @_ZNK5Eigen15PlainObjectBaseINS_6MatrixIdLi3ELi1ELi0ELi3ELi1EEEE4dataEv(ptr noundef nonnull align 8 dereferenceable(24) %0) #7 comdat align 2 {
  %2 = alloca ptr, align 8
  store ptr %0, ptr %2, align 8, !tbaa !144
  %3 = load ptr, ptr %2, align 8
  %4 = getelementptr inbounds nuw %"class.Eigen::PlainObjectBase", ptr %3, i32 0, i32 0
  %5 = call noundef ptr @_ZNK5Eigen12DenseStorageIdLi3ELi3ELi1ELi0EE4dataEv(ptr noundef nonnull align 8 dereferenceable(24) %4)
  ret ptr %5
}

; Function Attrs: inlinehint mustprogress nounwind uwtable
define linkonce_odr void @_ZN5Eigen8internal14evaluator_baseINS_6MatrixIdLi3ELi1ELi0ELi3ELi1EEEEC2Ev(ptr noundef nonnull align 1 dereferenceable(1) %0) unnamed_addr #8 comdat align 2 {
  %2 = alloca ptr, align 8
  store ptr %0, ptr %2, align 8, !tbaa !140
  ret void
}

; Function Attrs: inlinehint mustprogress uwtable
define linkonce_odr void @_ZN5Eigen8internal9evaluatorINS_15PlainObjectBaseINS_6MatrixIdLi3ELi1ELi0ELi3ELi1EEEEEEC2ERKS5_(ptr noundef nonnull align 8 dereferenceable(8) %0, ptr noundef nonnull align 8 dereferenceable(24) %1) unnamed_addr #7 comdat align 2 personality ptr @__gxx_personality_v0 {
  %3 = alloca ptr, align 8
  %4 = alloca ptr, align 8
  %5 = alloca ptr, align 8
  %6 = alloca i32, align 4
  store ptr %0, ptr %3, align 8, !tbaa !142
  store ptr %1, ptr %4, align 8, !tbaa !144
  %7 = load ptr, ptr %3, align 8
  call void @_ZN5Eigen8internal14evaluator_baseINS_6MatrixIdLi3ELi1ELi0ELi3ELi1EEEEC2Ev(ptr noundef nonnull align 1 dereferenceable(1) %7)
  %8 = getelementptr inbounds nuw %"struct.Eigen::internal::evaluator.39", ptr %7, i32 0, i32 0
  %9 = load ptr, ptr %4, align 8, !tbaa !144
  %10 = invoke noundef ptr @_ZNK5Eigen15PlainObjectBaseINS_6MatrixIdLi3ELi1ELi0ELi3ELi1EEEE4dataEv(ptr noundef nonnull align 8 dereferenceable(24) %9)
          to label %11 unwind label %13

11:                                               ; preds = %2
  invoke void @_ZN5Eigen8internal30plainobjectbase_evaluator_dataIdLi0EEC2EPKdl(ptr noundef nonnull align 8 dereferenceable(8) %8, ptr noundef %10, i64 noundef 0)
          to label %12 unwind label %13

12:                                               ; preds = %11
  ret void

13:                                               ; preds = %11, %2
  %14 = landingpad { ptr, i32 }
          cleanup
  %15 = extractvalue { ptr, i32 } %14, 0
  store ptr %15, ptr %5, align 8
  %16 = extractvalue { ptr, i32 } %14, 1
  store i32 %16, ptr %6, align 4
  call void @_ZN5Eigen8internal14evaluator_baseINS_6MatrixIdLi3ELi1ELi0ELi3ELi1EEEED2Ev(ptr noundef nonnull align 1 dereferenceable(1) %7) #6
  br label %17

17:                                               ; preds = %13
  %18 = load ptr, ptr %5, align 8
  %19 = load i32, ptr %6, align 4
  %20 = insertvalue { ptr, i32 } poison, ptr %18, 0
  %21 = insertvalue { ptr, i32 } %20, i32 %19, 1
  resume { ptr, i32 } %21
}

; Function Attrs: mustprogress nounwind uwtable
define linkonce_odr noundef i64 @_ZN5Eigen12DenseStorageIdLi3ELi3ELi1ELi0EE4colsEv() #1 comdat align 2 {
  ret i64 1
}

; Function Attrs: mustprogress nounwind uwtable
define linkonce_odr noundef i64 @_ZN5Eigen12DenseStorageIdLi3ELi3ELi1ELi0EE4rowsEv() #1 comdat align 2 {
  ret i64 3
}

; Function Attrs: inlinehint mustprogress nounwind uwtable
define linkonce_odr noundef i32 @_ZStorSt12_Ios_IostateS_(i32 noundef %0, i32 noundef %1) #8 comdat {
  %3 = alloca i32, align 4
  %4 = alloca i32, align 4
  store i32 %0, ptr %3, align 4, !tbaa !257
  store i32 %1, ptr %4, align 4, !tbaa !257
  %5 = load i32, ptr %3, align 4, !tbaa !257
  %6 = load i32, ptr %4, align 4, !tbaa !257
  %7 = or i32 %5, %6
  ret i32 %7
}

; Function Attrs: inlinehint mustprogress nounwind uwtable
define linkonce_odr void @_ZN5Eigen8internal14evaluator_baseINS_6MatrixIdLi3ELi1ELi0ELi3ELi1EEEED2Ev(ptr noundef nonnull align 1 dereferenceable(1) %0) unnamed_addr #8 comdat align 2 {
  %2 = alloca ptr, align 8
  store ptr %0, ptr %2, align 8, !tbaa !140
  ret void
}

; Function Attrs: inlinehint mustprogress nounwind uwtable
define linkonce_odr noundef nonnull align 8 dereferenceable(8) ptr @_ZNK5Eigen8internal9evaluatorINS_15PlainObjectBaseINS_6MatrixIdLi3ELi1ELi0ELi3ELi1EEEEEE5coeffEl(ptr noundef nonnull align 8 dereferenceable(8) %0, i64 noundef %1) #8 comdat align 2 {
  %3 = alloca ptr, align 8
  %4 = alloca i64, align 8
  store ptr %0, ptr %3, align 8, !tbaa !142
  store i64 %1, ptr %4, align 8, !tbaa !99
  %5 = load ptr, ptr %3, align 8
  %6 = getelementptr inbounds nuw %"struct.Eigen::internal::evaluator.39", ptr %5, i32 0, i32 0
  %7 = getelementptr inbounds nuw %"class.Eigen::internal::plainobjectbase_evaluator_data", ptr %6, i32 0, i32 0
  %8 = load ptr, ptr %7, align 8, !tbaa !160
  %9 = load i64, ptr %4, align 8, !tbaa !99
  %10 = getelementptr inbounds double, ptr %8, i64 %9
  ret ptr %10
}

; Function Attrs: inlinehint mustprogress uwtable
define linkonce_odr void @_ZN5Eigen8internal9evaluatorINS_6MatrixIdLi3ELi1ELi0ELi3ELi1EEEEC2ERKS3_(ptr noundef nonnull align 8 dereferenceable(8) %0, ptr noundef nonnull align 8 dereferenceable(24) %1) unnamed_addr #7 comdat align 2 {
  %3 = alloca ptr, align 8
  %4 = alloca ptr, align 8
  store ptr %0, ptr %3, align 8, !tbaa !132
  store ptr %1, ptr %4, align 8, !tbaa !93
  %5 = load ptr, ptr %3, align 8
  %6 = load ptr, ptr %4, align 8, !tbaa !93
  call void @_ZN5Eigen8internal9evaluatorINS_15PlainObjectBaseINS_6MatrixIdLi3ELi1ELi0ELi3ELi1EEEEEEC2ERKS5_(ptr noundef nonnull align 8 dereferenceable(8) %5, ptr noundef nonnull align 8 dereferenceable(24) %6)
  ret void
}

; Function Attrs: inlinehint mustprogress nounwind uwtable
define linkonce_odr noundef i64 @_ZNK5Eigen15PlainObjectBaseINS_6MatrixIdLi3ELi1ELi0ELi3ELi1EEEE4colsEv(ptr noundef nonnull align 8 dereferenceable(24) %0) #8 comdat align 2 {
  %2 = alloca ptr, align 8
  store ptr %0, ptr %2, align 8, !tbaa !144
  %3 = call noundef i64 @_ZN5Eigen12DenseStorageIdLi3ELi3ELi1ELi0EE4colsEv() #6
  ret i64 %3
}

; Function Attrs: inlinehint mustprogress nounwind uwtable
define linkonce_odr noundef i64 @_ZNK5Eigen15PlainObjectBaseINS_6MatrixIdLi3ELi1ELi0ELi3ELi1EEEE4rowsEv(ptr noundef nonnull align 8 dereferenceable(24) %0) #8 comdat align 2 {
  %2 = alloca ptr, align 8
  store ptr %0, ptr %2, align 8, !tbaa !144
  %3 = call noundef i64 @_ZN5Eigen12DenseStorageIdLi3ELi3ELi1ELi0EE4rowsEv() #6
  ret i64 %3
}

; Function Attrs: mustprogress nounwind uwtable
define linkonce_odr noundef nonnull align 8 dereferenceable(24) ptr @_ZNK5Eigen9EigenBaseINS_6MatrixIdLi3ELi1ELi0ELi3ELi1EEEE7derivedEv(ptr noundef nonnull align 1 dereferenceable(1) %0) #1 comdat align 2 {
  %2 = alloca ptr, align 8
  store ptr %0, ptr %2, align 8, !tbaa !126
  %3 = load ptr, ptr %2, align 8
  ret ptr %3
}

; Function Attrs: mustprogress nounwind uwtable
define available_externally noundef i32 @_ZNKSt9basic_iosIcSt11char_traitsIcEE7rdstateEv(ptr noundef nonnull align 8 dereferenceable(264) %0) #1 align 2 {
  %2 = alloca ptr, align 8
  store ptr %0, ptr %2, align 8, !tbaa !244
  %3 = load ptr, ptr %2, align 8
  %4 = getelementptr inbounds nuw %"class.std::ios_base", ptr %3, i32 0, i32 5
  %5 = load i32, ptr %4, align 8, !tbaa !248
  ret i32 %5
}

; Function Attrs: mustprogress nounwind uwtable
define linkonce_odr noundef i64 @_ZNSt11char_traitsIcE6lengthEPKc(ptr noundef %0) #1 comdat align 2 {
  %2 = alloca ptr, align 8
  store ptr %0, ptr %2, align 8, !tbaa !45
  %3 = load ptr, ptr %2, align 8, !tbaa !45
  %4 = call i64 @strlen(ptr noundef %3) #6
  ret i64 %4
}

; Function Attrs: mustprogress uwtable
define available_externally void @_ZNSt9basic_iosIcSt11char_traitsIcEE8setstateESt12_Ios_Iostate(ptr noundef nonnull align 8 dereferenceable(264) %0, i32 noundef %1) #3 align 2 {
  %3 = alloca ptr, align 8
  %4 = alloca i32, align 4
  store ptr %0, ptr %3, align 8, !tbaa !244
  store i32 %1, ptr %4, align 4, !tbaa !257
  %5 = load ptr, ptr %3, align 8
  %6 = call noundef i32 @_ZNKSt9basic_iosIcSt11char_traitsIcEE7rdstateEv(ptr noundef nonnull align 8 dereferenceable(264) %5)
  %7 = load i32, ptr %4, align 4, !tbaa !257
  %8 = call noundef i32 @_ZStorSt12_Ios_IostateS_(i32 noundef %6, i32 noundef %7)
  call void @_ZNSt9basic_iosIcSt11char_traitsIcEE5clearESt12_Ios_Iostate(ptr noundef nonnull align 8 dereferenceable(264) %5, i32 noundef %8)
  ret void
}

; Function Attrs: inlinehint mustprogress uwtable
define linkonce_odr noundef nonnull align 8 dereferenceable(8) ptr @_ZNK5Eigen15DenseCoeffsBaseINS_6MatrixIdLi3ELi1ELi0ELi3ELi1EEELi0EE5coeffEl(ptr noundef nonnull align 1 dereferenceable(1) %0, i64 noundef %1) #7 comdat align 2 personality ptr @__gxx_personality_v0 {
  %3 = alloca ptr, align 8
  %4 = alloca i64, align 8
  %5 = alloca %"struct.Eigen::internal::evaluator", align 8
  %6 = alloca ptr, align 8
  %7 = alloca i32, align 4
  store ptr %0, ptr %3, align 8, !tbaa !55
  store i64 %1, ptr %4, align 8, !tbaa !99
  %8 = load ptr, ptr %3, align 8
  call void @llvm.lifetime.start.p0(i64 8, ptr %5) #6
  %9 = call noundef nonnull align 8 dereferenceable(24) ptr @_ZNK5Eigen9EigenBaseINS_6MatrixIdLi3ELi1ELi0ELi3ELi1EEEE7derivedEv(ptr noundef nonnull align 1 dereferenceable(1) %8)
  call void @_ZN5Eigen8internal9evaluatorINS_6MatrixIdLi3ELi1ELi0ELi3ELi1EEEEC2ERKS3_(ptr noundef nonnull align 8 dereferenceable(8) %5, ptr noundef nonnull align 8 dereferenceable(24) %9)
  %10 = load i64, ptr %4, align 8, !tbaa !99
  %11 = invoke noundef nonnull align 8 dereferenceable(8) ptr @_ZNK5Eigen8internal9evaluatorINS_15PlainObjectBaseINS_6MatrixIdLi3ELi1ELi0ELi3ELi1EEEEEE5coeffEl(ptr noundef nonnull align 8 dereferenceable(8) %5, i64 noundef %10)
          to label %12 unwind label %13

12:                                               ; preds = %2
  call void @_ZN5Eigen8internal14evaluator_baseINS_6MatrixIdLi3ELi1ELi0ELi3ELi1EEEED2Ev(ptr noundef nonnull align 8 dereferenceable(8) %5) #6
  call void @llvm.lifetime.end.p0(i64 8, ptr %5) #6
  ret ptr %11

13:                                               ; preds = %2
  %14 = landingpad { ptr, i32 }
          cleanup
  %15 = extractvalue { ptr, i32 } %14, 0
  store ptr %15, ptr %6, align 8
  %16 = extractvalue { ptr, i32 } %14, 1
  store i32 %16, ptr %7, align 4
  call void @_ZN5Eigen8internal14evaluator_baseINS_6MatrixIdLi3ELi1ELi0ELi3ELi1EEEED2Ev(ptr noundef nonnull align 8 dereferenceable(8) %5) #6
  call void @llvm.lifetime.end.p0(i64 8, ptr %5) #6
  br label %17

17:                                               ; preds = %13
  %18 = load ptr, ptr %6, align 8
  %19 = load i32, ptr %7, align 4
  %20 = insertvalue { ptr, i32 } poison, ptr %18, 0
  %21 = insertvalue { ptr, i32 } %20, i32 %19, 1
  resume { ptr, i32 } %21
}

; Function Attrs: inlinehint mustprogress nounwind uwtable
define linkonce_odr noundef i64 @_ZNK5Eigen9EigenBaseINS_6MatrixIdLi3ELi1ELi0ELi3ELi1EEEE4colsEv(ptr noundef nonnull align 1 dereferenceable(1) %0) #8 comdat align 2 {
  %2 = alloca ptr, align 8
  store ptr %0, ptr %2, align 8, !tbaa !126
  %3 = load ptr, ptr %2, align 8
  %4 = call noundef nonnull align 8 dereferenceable(24) ptr @_ZNK5Eigen9EigenBaseINS_6MatrixIdLi3ELi1ELi0ELi3ELi1EEEE7derivedEv(ptr noundef nonnull align 1 dereferenceable(1) %3)
  %5 = call noundef i64 @_ZNK5Eigen15PlainObjectBaseINS_6MatrixIdLi3ELi1ELi0ELi3ELi1EEEE4colsEv(ptr noundef nonnull align 8 dereferenceable(24) %4) #6
  ret i64 %5
}

; Function Attrs: inlinehint mustprogress nounwind uwtable
define linkonce_odr noundef i64 @_ZNK5Eigen9EigenBaseINS_6MatrixIdLi3ELi1ELi0ELi3ELi1EEEE4rowsEv(ptr noundef nonnull align 1 dereferenceable(1) %0) #8 comdat align 2 {
  %2 = alloca ptr, align 8
  store ptr %0, ptr %2, align 8, !tbaa !126
  %3 = load ptr, ptr %2, align 8
  %4 = call noundef nonnull align 8 dereferenceable(24) ptr @_ZNK5Eigen9EigenBaseINS_6MatrixIdLi3ELi1ELi0ELi3ELi1EEEE7derivedEv(ptr noundef nonnull align 1 dereferenceable(1) %3)
  %5 = call noundef i64 @_ZNK5Eigen15PlainObjectBaseINS_6MatrixIdLi3ELi1ELi0ELi3ELi1EEEE4rowsEv(ptr noundef nonnull align 8 dereferenceable(24) %4) #6
  ret i64 %5
}

; Function Attrs: mustprogress uwtable
define available_externally noundef zeroext i1 @_ZNKSt9basic_iosIcSt11char_traitsIcEE4goodEv(ptr noundef nonnull align 8 dereferenceable(264) %0) #3 align 2 {
  %2 = alloca ptr, align 8
  store ptr %0, ptr %2, align 8, !tbaa !244
  %3 = load ptr, ptr %2, align 8
  %4 = call noundef i32 @_ZNKSt9basic_iosIcSt11char_traitsIcEE7rdstateEv(ptr noundef nonnull align 8 dereferenceable(264) %3)
  %5 = icmp eq i32 %4, 0
  ret i1 %5
}

; Function Attrs: inlinehint mustprogress uwtable
define available_externally noundef nonnull align 8 dereferenceable(8) ptr @_ZStlsISt11char_traitsIcEERSt13basic_ostreamIcT_ES5_PKc(ptr noundef nonnull align 8 dereferenceable(8) %0, ptr noundef %1) #7 {
  %3 = alloca ptr, align 8
  %4 = alloca ptr, align 8
  store ptr %0, ptr %3, align 8, !tbaa !26
  store ptr %1, ptr %4, align 8, !tbaa !45
  %5 = load ptr, ptr %4, align 8, !tbaa !45
  %6 = icmp ne ptr %5, null
  br i1 %6, label %13, label %7

7:                                                ; preds = %2
  %8 = load ptr, ptr %3, align 8, !tbaa !26
  %9 = load ptr, ptr %8, align 8, !tbaa !22
  %10 = getelementptr i8, ptr %9, i64 -24
  %11 = load i64, ptr %10, align 8
  %12 = getelementptr inbounds i8, ptr %8, i64 %11
  call void @_ZNSt9basic_iosIcSt11char_traitsIcEE8setstateESt12_Ios_Iostate(ptr noundef nonnull align 8 dereferenceable(264) %12, i32 noundef 1)
  br label %19

13:                                               ; preds = %2
  %14 = load ptr, ptr %3, align 8, !tbaa !26
  %15 = load ptr, ptr %4, align 8, !tbaa !45
  %16 = load ptr, ptr %4, align 8, !tbaa !45
  %17 = call noundef i64 @_ZNSt11char_traitsIcE6lengthEPKc(ptr noundef %16)
  %18 = call noundef nonnull align 8 dereferenceable(8) ptr @_ZSt16__ostream_insertIcSt11char_traitsIcEERSt13basic_ostreamIT_T0_ES6_PKS3_l(ptr noundef nonnull align 8 dereferenceable(8) %14, ptr noundef %15, i64 noundef %17)
  br label %19

19:                                               ; preds = %13, %7
  %20 = load ptr, ptr %3, align 8, !tbaa !26
  ret ptr %20
}

; Function Attrs: mustprogress uwtable
define available_externally noundef nonnull align 8 dereferenceable(8) ptr @_ZNSolsEd(ptr noundef nonnull align 8 dereferenceable(8) %0, double noundef %1) #3 align 2 {
  %3 = alloca ptr, align 8
  %4 = alloca double, align 8
  store ptr %0, ptr %3, align 8, !tbaa !26
  store double %1, ptr %4, align 8, !tbaa !28
  %5 = load ptr, ptr %3, align 8
  %6 = load double, ptr %4, align 8, !tbaa !28
  %7 = call noundef nonnull align 8 dereferenceable(8) ptr @_ZNSo9_M_insertIdEERSoT_(ptr noundef nonnull align 8 dereferenceable(8) %5, double noundef %6)
  ret ptr %7
}

; Function Attrs: inlinehint mustprogress uwtable
define linkonce_odr noundef nonnull align 8 dereferenceable(8) ptr @_ZNK5Eigen15DenseCoeffsBaseINS_6MatrixIdLi3ELi1ELi0ELi3ELi1EEELi0EEclEl(ptr noundef nonnull align 1 dereferenceable(1) %0, i64 noundef %1) #7 comdat align 2 {
  %3 = alloca ptr, align 8
  %4 = alloca i64, align 8
  store ptr %0, ptr %3, align 8, !tbaa !55
  store i64 %1, ptr %4, align 8, !tbaa !99
  %5 = load ptr, ptr %3, align 8
  %6 = load i64, ptr %4, align 8, !tbaa !99
  %7 = call noundef nonnull align 8 dereferenceable(8) ptr @_ZNK5Eigen15DenseCoeffsBaseINS_6MatrixIdLi3ELi1ELi0ELi3ELi1EEELi0EE5coeffEl(ptr noundef nonnull align 1 dereferenceable(1) %5, i64 noundef %6)
  ret ptr %7
}

; Function Attrs: inlinehint mustprogress nounwind uwtable
define linkonce_odr noundef i64 @_ZNK5Eigen9EigenBaseINS_6MatrixIdLi3ELi1ELi0ELi3ELi1EEEE4sizeEv(ptr noundef nonnull align 1 dereferenceable(1) %0) #8 comdat align 2 {
  %2 = alloca ptr, align 8
  store ptr %0, ptr %2, align 8, !tbaa !126
  %3 = load ptr, ptr %2, align 8
  %4 = call noundef i64 @_ZNK5Eigen9EigenBaseINS_6MatrixIdLi3ELi1ELi0ELi3ELi1EEEE4rowsEv(ptr noundef nonnull align 1 dereferenceable(1) %3) #6
  %5 = call noundef i64 @_ZNK5Eigen9EigenBaseINS_6MatrixIdLi3ELi1ELi0ELi3ELi1EEEE4colsEv(ptr noundef nonnull align 1 dereferenceable(1) %3) #6
  %6 = mul nsw i64 %4, %5
  ret i64 %6
}

; Function Attrs: mustprogress uwtable
define linkonce_odr noundef zeroext i1 @_ZN3g2o8internal11writeVectorIN5Eigen6MatrixIdLi3ELi1ELi0ELi3ELi1EEEEEbRSoRKNS2_9DenseBaseIT_EE(ptr noundef nonnull align 8 dereferenceable(8) %0, ptr noundef nonnull align 1 dereferenceable(1) %1) #3 comdat {
  %3 = alloca ptr, align 8
  %4 = alloca ptr, align 8
  %5 = alloca i32, align 4
  store ptr %0, ptr %3, align 8, !tbaa !26
  store ptr %1, ptr %4, align 8, !tbaa !18
  call void @llvm.lifetime.start.p0(i64 4, ptr %5) #6
  store i32 0, ptr %5, align 4, !tbaa !20
  br label %6

6:                                                ; preds = %22, %2
  %7 = load i32, ptr %5, align 4, !tbaa !20
  %8 = sext i32 %7 to i64
  %9 = load ptr, ptr %4, align 8, !tbaa !18
  %10 = call noundef i64 @_ZNK5Eigen9EigenBaseINS_6MatrixIdLi3ELi1ELi0ELi3ELi1EEEE4sizeEv(ptr noundef nonnull align 1 dereferenceable(1) %9) #6
  %11 = icmp slt i64 %8, %10
  br i1 %11, label %13, label %12

12:                                               ; preds = %6
  call void @llvm.lifetime.end.p0(i64 4, ptr %5) #6
  br label %25

13:                                               ; preds = %6
  %14 = load ptr, ptr %3, align 8, !tbaa !26
  %15 = load ptr, ptr %4, align 8, !tbaa !18
  %16 = load i32, ptr %5, align 4, !tbaa !20
  %17 = sext i32 %16 to i64
  %18 = call noundef nonnull align 8 dereferenceable(8) ptr @_ZNK5Eigen15DenseCoeffsBaseINS_6MatrixIdLi3ELi1ELi0ELi3ELi1EEELi0EEclEl(ptr noundef nonnull align 1 dereferenceable(1) %15, i64 noundef %17)
  %19 = load double, ptr %18, align 8, !tbaa !28
  %20 = call noundef nonnull align 8 dereferenceable(8) ptr @_ZNSolsEd(ptr noundef nonnull align 8 dereferenceable(8) %14, double noundef %19)
  %21 = call noundef nonnull align 8 dereferenceable(8) ptr @_ZStlsISt11char_traitsIcEERSt13basic_ostreamIcT_ES5_PKc(ptr noundef nonnull align 8 dereferenceable(8) %20, ptr noundef @.str)
  br label %22

22:                                               ; preds = %13
  %23 = load i32, ptr %5, align 4, !tbaa !20
  %24 = add nsw i32 %23, 1
  store i32 %24, ptr %5, align 4, !tbaa !20
  br label %6, !llvm.loop !30

25:                                               ; preds = %12
  %26 = load ptr, ptr %3, align 8, !tbaa !26
  %27 = load ptr, ptr %26, align 8, !tbaa !22
  %28 = getelementptr i8, ptr %27, i64 -24
  %29 = load i64, ptr %28, align 8
  %30 = getelementptr inbounds i8, ptr %26, i64 %29
  %31 = call noundef zeroext i1 @_ZNKSt9basic_iosIcSt11char_traitsIcEE4goodEv(ptr noundef nonnull align 8 dereferenceable(264) %30)
  ret i1 %31
}

; Function Attrs: mustprogress nounwind uwtable
define linkonce_odr noundef nonnull align 8 dereferenceable(24) ptr @_ZNK3g2o10BaseVertexILi3EN5Eigen6MatrixIdLi3ELi1ELi0ELi3ELi1EEEE8estimateEv(ptr noundef nonnull align 8 dereferenceable(216) %0) #1 comdat align 2 {
  %2 = alloca ptr, align 8
  store ptr %0, ptr %2, align 8, !tbaa !31
  %3 = load ptr, ptr %2, align 8
  %4 = getelementptr inbounds nuw %"class.g2o::BaseVertex", ptr %3, i32 0, i32 3
  ret ptr %4
}

; Function Attrs: mustprogress uwtable
define noundef zeroext i1 @_ZNK3g2o14VertexPointXYZ5writeERSo(ptr noundef nonnull align 8 dereferenceable(216) %0, ptr noundef nonnull align 8 dereferenceable(8) %1) unnamed_addr #3 align 2 {
  %3 = alloca ptr, align 8
  %4 = alloca ptr, align 8
  store ptr %0, ptr %3, align 8, !tbaa !14
  store ptr %1, ptr %4, align 8, !tbaa !26
  %5 = load ptr, ptr %3, align 8
  %6 = load ptr, ptr %4, align 8, !tbaa !26
  %7 = call noundef nonnull align 8 dereferenceable(24) ptr @_ZNK3g2o10BaseVertexILi3EN5Eigen6MatrixIdLi3ELi1ELi0ELi3ELi1EEEE8estimateEv(ptr noundef nonnull align 8 dereferenceable(216) %5)
  %8 = call noundef zeroext i1 @_ZN3g2o8internal11writeVectorIN5Eigen6MatrixIdLi3ELi1ELi0ELi3ELi1EEEEEbRSoRKNS2_9DenseBaseIT_EE(ptr noundef nonnull align 8 dereferenceable(8) %6, ptr noundef nonnull align 1 dereferenceable(1) %7)
  ret i1 %8
}