; Function Attrs: mustprogress uwtable
define noundef zeroext i1 @_ZNK3g2o14VertexPointXYZ5writeERSo(ptr noundef nonnull readonly align 8 captures(none) dereferenceable(216) %0, ptr noundef nonnull align 8 dereferenceable(8) %1) unnamed_addr #4 align 2 personality ptr @__gxx_personality_v0 {
  %3 = getelementptr inbounds nuw i8, ptr %0, i64 168
  br label %4

4:                                                ; preds = %4, %2
  %indvars.iv.i = phi i64 [ 0, %2 ], [ %indvars.iv.next.i, %4 ]
  %5 = getelementptr inbounds nuw double, ptr %3, i64 %indvars.iv.i
  %6 = load double, ptr %5, align 8, !tbaa !21
  %7 = tail call noundef nonnull align 8 dereferenceable(8) ptr @_ZNSo9_M_insertIdEERSoT_(ptr noundef nonnull align 8 dereferenceable(8) %1, double noundef %6)
  %8 = tail call noundef nonnull align 8 dereferenceable(8) ptr @_ZSt16__ostream_insertIcSt11char_traitsIcEERSt13basic_ostreamIT_T0_ES6_PKS3_l(ptr noundef nonnull align 8 dereferenceable(8) %7, ptr noundef nonnull @.str, i64 noundef 1)
  %indvars.iv.next.i = add nuw nsw i64 %indvars.iv.i, 1
  %exitcond.not.i = icmp eq i64 %indvars.iv.next.i, 3
  br i1 %exitcond.not.i, label %_ZN3g2o8internal11writeVectorIN5Eigen6MatrixIdLi3ELi1ELi0ELi3ELi1EEEEEbRSoRKNS2_9DenseBaseIT_EE.exit, label %4, !llvm.loop !23

_ZN3g2o8internal11writeVectorIN5Eigen6MatrixIdLi3ELi1ELi0ELi3ELi1EEEEEbRSoRKNS2_9DenseBaseIT_EE.exit: ; preds = %4
  %9 = load ptr, ptr %1, align 8, !tbaa !3
  %10 = getelementptr i8, ptr %9, i64 -24
  %11 = load i64, ptr %10, align 8
  %12 = getelementptr inbounds i8, ptr %1, i64 %11
  %13 = getelementptr inbounds nuw i8, ptr %12, i64 32
  %14 = load i32, ptr %13, align 8, !tbaa !6
  %15 = icmp eq i32 %14, 0
  ret i1 %15
}